; ModuleID = '5/244.c'
source_filename = "5/244.c"
target datalayout = "e-m:e-p270:32:32-p271:32:32-p272:64:64-i64:64-f80:128-n8:16:32:64-S128"
target triple = "x86_64-pc-linux-gnu"

@.str = private unnamed_addr constant [4 x i8] c"%lf\00", align 1
@.str.1 = private unnamed_addr constant [3 x i8] c"%s\00", align 1
@.str.2 = private unnamed_addr constant [7 x i8] c"error\0A\00", align 1
@.str.3 = private unnamed_addr constant [5 x i8] c"yes\0A\00", align 1
@.str.4 = private unnamed_addr constant [4 x i8] c"no\0A\00", align 1

; Function Attrs: noinline nounwind uwtable
define dso_local i32 @main() #0 {
  %1 = alloca i32, align 4
  %2 = alloca double, align 8
  %3 = alloca double, align 8
  %4 = alloca double, align 8
  %5 = alloca i32, align 4
  %6 = alloca [500 x i8], align 16
  %7 = alloca [500 x i8], align 16
  %8 = alloca i32, align 4
  %9 = alloca i32, align 4
  store i32 0, i32* %1, align 4
  store double 0.000000e+00, double* %4, align 8
  %10 = call i32 (i8*, ...) @__isoc99_scanf(i8* getelementptr inbounds ([4 x i8], [4 x i8]* @.str, i64 0, i64 0), double* %2)
  %11 = call i32 (i8*, ...) @__isoc99_scanf(i8* getelementptr inbounds ([3 x i8], [3 x i8]* @.str.1, i64 0, i64 0), [500 x i8]* %6)
  %12 = call i32 (i8*, ...) @__isoc99_scanf(i8* getelementptr inbounds ([3 x i8], [3 x i8]* @.str.1, i64 0, i64 0), [500 x i8]* %7)
  %13 = getelementptr inbounds [500 x i8], [500 x i8]* %6, i64 0, i64 0
  %14 = call i64 @strlen(i8* %13) #3
  %15 = uitofp i64 %14 to double
  store double %15, double* %3, align 8
  %16 = getelementptr inbounds [500 x i8], [500 x i8]* %7, i64 0, i64 0
  %17 = call i64 @strlen(i8* %16) #3
  %18 = trunc i64 %17 to i32
  store i32 %18, i32* %5, align 4
  %19 = load double, double* %3, align 8
  %20 = load i32, i32* %5, align 4
  %21 = sitofp i32 %20 to double
  %22 = fcmp une double %19, %21
  br i1 %22, label %23, label %25

23:                                               ; preds = %0
  %24 = call i32 (i8*, ...) @printf(i8* getelementptr inbounds ([7 x i8], [7 x i8]* @.str.2, i64 0, i64 0))
  store i32 0, i32* %1, align 4
  br label %132

25:                                               ; preds = %0
  store i32 0, i32* %8, align 4
  br label %26

26:                                               ; preds = %92, %25
  %27 = load i32, i32* %8, align 4
  %28 = sitofp i32 %27 to double
  %29 = load double, double* %3, align 8
  %30 = fcmp olt double %28, %29
  br i1 %30, label %31, label %95

31:                                               ; preds = %26
  %32 = load i32, i32* %8, align 4
  %33 = sext i32 %32 to i64
  %34 = getelementptr inbounds [500 x i8], [500 x i8]* %6, i64 0, i64 %33
  %35 = load i8, i8* %34, align 1
  %36 = sext i8 %35 to i32
  %37 = icmp ne i32 %36, 65
  br i1 %37, label %38, label %61

38:                                               ; preds = %31
  %39 = load i32, i32* %8, align 4
  %40 = sext i32 %39 to i64
  %41 = getelementptr inbounds [500 x i8], [500 x i8]* %6, i64 0, i64 %40
  %42 = load i8, i8* %41, align 1
  %43 = sext i8 %42 to i32
  %44 = icmp ne i32 %43, 84
  br i1 %44, label %45, label %61

45:                                               ; preds = %38
  %46 = load i32, i32* %8, align 4
  %47 = sext i32 %46 to i64
  %48 = getelementptr inbounds [500 x i8], [500 x i8]* %6, i64 0, i64 %47
  %49 = load i8, i8* %48, align 1
  %50 = sext i8 %49 to i32
  %51 = icmp ne i32 %50, 67
  br i1 %51, label %52, label %61

52:                                               ; preds = %45
  %53 = load i32, i32* %8, align 4
  %54 = sext i32 %53 to i64
  %55 = getelementptr inbounds [500 x i8], [500 x i8]* %6, i64 0, i64 %54
  %56 = load i8, i8* %55, align 1
  %57 = sext i8 %56 to i32
  %58 = icmp ne i32 %57, 71
  br i1 %58, label %59, label %61

59:                                               ; preds = %52
  %60 = call i32 (i8*, ...) @printf(i8* getelementptr inbounds ([7 x i8], [7 x i8]* @.str.2, i64 0, i64 0))
  store i32 0, i32* %1, align 4
  br label %132

61:                                               ; preds = %52, %45, %38, %31
  %62 = load i32, i32* %8, align 4
  %63 = sext i32 %62 to i64
  %64 = getelementptr inbounds [500 x i8], [500 x i8]* %7, i64 0, i64 %63
  %65 = load i8, i8* %64, align 1
  %66 = sext i8 %65 to i32
  %67 = icmp ne i32 %66, 65
  br i1 %67, label %68, label %91

68:                                               ; preds = %61
  %69 = load i32, i32* %8, align 4
  %70 = sext i32 %69 to i64
  %71 = getelementptr inbounds [500 x i8], [500 x i8]* %7, i64 0, i64 %70
  %72 = load i8, i8* %71, align 1
  %73 = sext i8 %72 to i32
  %74 = icmp ne i32 %73, 84
  br i1 %74, label %75, label %91

75:                                               ; preds = %68
  %76 = load i32, i32* %8, align 4
  %77 = sext i32 %76 to i64
  %78 = getelementptr inbounds [500 x i8], [500 x i8]* %7, i64 0, i64 %77
  %79 = load i8, i8* %78, align 1
  %80 = sext i8 %79 to i32
  %81 = icmp ne i32 %80, 67
  br i1 %81, label %82, label %91

82:                                               ; preds = %75
  %83 = load i32, i32* %8, align 4
  %84 = sext i32 %83 to i64
  %85 = getelementptr inbounds [500 x i8], [500 x i8]* %7, i64 0, i64 %84
  %86 = load i8, i8* %85, align 1
  %87 = sext i8 %86 to i32
  %88 = icmp ne i32 %87, 71
  br i1 %88, label %89, label %91

89:                                               ; preds = %82
  %90 = call i32 (i8*, ...) @printf(i8* getelementptr inbounds ([7 x i8], [7 x i8]* @.str.2, i64 0, i64 0))
  store i32 0, i32* %1, align 4
  br label %132

91:                                               ; preds = %82, %75, %68, %61
  br label %92

92:                                               ; preds = %91
  %93 = load i32, i32* %8, align 4
  %94 = add nsw i32 %93, 1
  store i32 %94, i32* %8, align 4
  br label %26

95:                                               ; preds = %26
  store i32 0, i32* %9, align 4
  br label %96

96:                                               ; preds = %117, %95
  %97 = load i32, i32* %9, align 4
  %98 = sitofp i32 %97 to double
  %99 = load double, double* %3, align 8
  %100 = fcmp olt double %98, %99
  br i1 %100, label %101, label %120

101:                                              ; preds = %96
  %102 = load i32, i32* %9, align 4
  %103 = sext i32 %102 to i64
  %104 = getelementptr inbounds [500 x i8], [500 x i8]* %6, i64 0, i64 %103
  %105 = load i8, i8* %104, align 1
  %106 = sext i8 %105 to i32
  %107 = load i32, i32* %9, align 4
  %108 = sext i32 %107 to i64
  %109 = getelementptr inbounds [500 x i8], [500 x i8]* %7, i64 0, i64 %108
  %110 = load i8, i8* %109, align 1
  %111 = sext i8 %110 to i32
  %112 = icmp eq i32 %106, %111
  br i1 %112, label %113, label %116

113:                                              ; preds = %101
  %114 = load double, double* %4, align 8
  %115 = fadd double %114, 1.000000e+00
  store double %115, double* %4, align 8
  br label %116

116:                                              ; preds = %113, %101
  br label %117

117:                                              ; preds = %116
  %118 = load i32, i32* %9, align 4
  %119 = add nsw i32 %118, 1
  store i32 %119, i32* %9, align 4
  br label %96

120:                                              ; preds = %96
  %121 = load double, double* %4, align 8
  %122 = load double, double* %3, align 8
  %123 = fdiv double %121, %122
  store double %123, double* %3, align 8
  %124 = load double, double* %3, align 8
  %125 = load double, double* %2, align 8
  %126 = fcmp ogt double %124, %125
  br i1 %126, label %127, label %129

127:                                              ; preds = %120
  %128 = call i32 (i8*, ...) @printf(i8* getelementptr inbounds ([5 x i8], [5 x i8]* @.str.3, i64 0, i64 0))
  br label %131

129:                                              ; preds = %120
  %130 = call i32 (i8*, ...) @printf(i8* getelementptr inbounds ([4 x i8], [4 x i8]* @.str.4, i64 0, i64 0))
  br label %131

131:                                              ; preds = %129, %127
  store i32 0, i32* %1, align 4
  br label %132

132:                                              ; preds = %131, %89, %59, %23
  %133 = load i32, i32* %1, align 4
  ret i32 %133
}

declare dso_local i32 @__isoc99_scanf(i8*, ...) #1

; Function Attrs: nounwind readonly
declare dso_local i64 @strlen(i8*) #2

declare dso_local i32 @printf(i8*, ...) #1


!llvm.module.flags = !{!0}
!llvm.ident = !{!1}

!0 = !{i32 1, !"wchar_size", i32 4}
!1 = !{!"clang version 10.0.0-4ubuntu1 "}
